(lp1
(lp2
(iPose
Pose
p3
(dp4
S'varList'
p5
(lp6
S'rot'
p7
asg7
(lp8
I47
aI3
aI0
asba(iPose
Pose
p9
(dp10
g5
(lp11
g7
asg7
(lp12
I26
aI16
aI0
asba(iPose
Pose
p13
(dp14
g5
(lp15
g7
asg7
(lp16
I-99
aI13
aI0
asba(iPose
Pose
p17
(dp18
g5
(lp19
g7
asg7
(lp20
I153
aI32
aI0
asba(iPose
Pose
p21
(dp22
g5
(lp23
g7
asg7
(lp24
I9
aI25
aI0
asba(iPose
Pose
p25
(dp26
g5
(lp27
g7
asg7
(lp28
I-97
aI16
aI0
asba(iPose
Pose
p29
(dp30
g5
(lp31
g7
asg7
(lp32
I93
aI7
aI0
asba(iPose
Pose
p33
(dp34
g5
(lp35
g7
asg7
(lp36
I-146
aI37
aI0
asba(iPose
Pose
p37
(dp38
g5
(lp39
g7
asg7
(lp40
I76
aI-8
aI0
asba(iPose
Pose
p41
(dp42
g5
(lp43
g7
asg7
(lp44
I-97
aI-17
aI0
asba(iPose
Pose
p45
(dp46
g5
(lp47
g7
asg7
(lp48
I20
aI20
aI0
asba(iPose
Pose
p49
(dp50
g5
(lp51
g7
asg7
(lp52
I-1
aI-15
aI0
asba(iPose
Pose
p53
(dp54
g5
(lp55
g7
asg7
(lp56
I73
aI25
aI0
asba(iPose
Pose
p57
(dp58
g5
(lp59
g7
asg7
(lp60
I33
aI9
aI0
asba(iPose
Pose
p61
(dp62
g5
(lp63
g7
asg7
(lp64
I56
aI16
aI0
asba(iPose
Pose
p65
(dp66
g5
(lp67
g7
asg7
(lp68
I103
aI29
aI0
asba(iPose
Pose
p69
(dp70
g5
(lp71
g7
asg7
(lp72
I-117
aI-5
aI0
asba(iPose
Pose
p73
(dp74
g5
(lp75
g7
asg7
(lp76
I112
aI-7
aI0
asba(iPose
Pose
p77
(dp78
g5
(lp79
g7
asg7
(lp80
I-4
aI22
aI0
asba(iPose
Pose
p81
(dp82
g5
(lp83
g7
asg7
(lp84
I116
aI-17
aI0
asbaa.